target datalayout = "e-m:e-p270:32:32-p271:32:32-p272:64:64-i64:64-i128:128-f80:128-n8:16:32:64-S128"
target triple = "x86_64-pc-linux-gnu"

%struct._fvalue_t = type { ptr, %union.anon.1 }
%union.anon.1 = type { %struct._protocol_value_t }
%struct._protocol_value_t = type { ptr, i32, ptr, i8 }

@.str.2 = private unnamed_addr constant [1 x i8] zeroinitializer, align 1

; Function Attrs: null_pointer_is_valid sspstrong uwtable
define internal void @value_free(ptr noundef %0) #0 {
  %2 = alloca ptr, align 8
  store ptr %0, ptr %2, align 8
  %3 = load ptr, ptr %2, align 8
  %4 = getelementptr inbounds nuw %struct._fvalue_t, ptr %3, i32 0, i32 1
  %5 = getelementptr inbounds nuw %struct._protocol_value_t, ptr %4, i32 0, i32 0
  %6 = load ptr, ptr %5, align 8
  %7 = icmp ne ptr %6, null
  br i1 %7, label %8, label %19

8:                                                ; preds = %1
  %9 = load ptr, ptr %2, align 8
  %10 = getelementptr inbounds nuw %struct._fvalue_t, ptr %9, i32 0, i32 1
  %11 = getelementptr inbounds nuw %struct._protocol_value_t, ptr %10, i32 0, i32 3
  %12 = load i8, ptr %11, align 8, !range !6, !noundef !7
  %13 = trunc i8 %12 to i1
  br i1 %13, label %14, label %19

14:                                               ; preds = %8
  %15 = load ptr, ptr %2, align 8
  %16 = getelementptr inbounds nuw %struct._fvalue_t, ptr %15, i32 0, i32 1
  %17 = getelementptr inbounds nuw %struct._protocol_value_t, ptr %16, i32 0, i32 0
  %18 = load ptr, ptr %17, align 8
  call void @tvb_free_chain(ptr noundef %18)
  br label %19

19:                                               ; preds = %14, %8, %1
  %20 = load ptr, ptr %2, align 8
  %21 = getelementptr inbounds nuw %struct._fvalue_t, ptr %20, i32 0, i32 1
  %22 = getelementptr inbounds nuw %struct._protocol_value_t, ptr %21, i32 0, i32 2
  %23 = load ptr, ptr %22, align 8
  call void @g_free(ptr noundef %23)
  ret void
}

; Function Attrs: null_pointer_is_valid sspstrong uwtable
define internal zeroext i1 @val_from_string(ptr noundef %0, ptr noundef %1, i64 noundef %2, ptr noundef %3) #0 {
  %5 = alloca ptr, align 8
  %6 = alloca ptr, align 8
  %7 = alloca i64, align 8
  %8 = alloca ptr, align 8
  %9 = alloca ptr, align 8
  %10 = alloca ptr, align 8
  store ptr %0, ptr %5, align 8
  store ptr %1, ptr %6, align 8
  store i64 %2, ptr %7, align 8
  store ptr %3, ptr %8, align 8
  call void @llvm.lifetime.start.p0(i64 8, ptr %9) #9
  call void @llvm.lifetime.start.p0(i64 8, ptr %10) #9
  %11 = load ptr, ptr %5, align 8
  call void @value_free(ptr noundef %11)
  %12 = load i64, ptr %7, align 8
  %13 = icmp eq i64 %12, 0
  br i1 %13, label %14, label %17

14:                                               ; preds = %4
  %15 = load ptr, ptr %6, align 8
  %16 = call i64 @strlen(ptr noundef %15) #10
  store i64 %16, ptr %7, align 8
  br label %17

17:                                               ; preds = %14, %4
  %18 = load ptr, ptr %6, align 8
  %19 = load i64, ptr %7, align 8
  %20 = trunc i64 %19 to i32
  %21 = zext i32 %20 to i64
  %22 = call ptr @g_memdup2(ptr noundef %18, i64 noundef %21) #11
  store ptr %22, ptr %10, align 8
  %23 = load ptr, ptr %10, align 8
  %24 = load i64, ptr %7, align 8
  %25 = trunc i64 %24 to i32
  %26 = load i64, ptr %7, align 8
  %27 = trunc i64 %26 to i32
  %28 = call ptr @tvb_new_real_data(ptr noundef %23, i32 noundef %25, i32 noundef %27)
  store ptr %28, ptr %9, align 8
  %29 = load ptr, ptr %9, align 8
  call void @tvb_set_free_cb(ptr noundef %29, ptr noundef @g_free)
  %30 = load ptr, ptr %5, align 8
  %31 = getelementptr inbounds nuw %struct._fvalue_t, ptr %30, i32 0, i32 1
  %32 = getelementptr inbounds nuw %struct._protocol_value_t, ptr %31, i32 0, i32 3
  store i8 1, ptr %32, align 8
  %33 = load ptr, ptr %9, align 8
  %34 = load ptr, ptr %5, align 8
  %35 = getelementptr inbounds nuw %struct._fvalue_t, ptr %34, i32 0, i32 1
  %36 = getelementptr inbounds nuw %struct._protocol_value_t, ptr %35, i32 0, i32 0
  store ptr %33, ptr %36, align 8
  %37 = call noalias ptr @g_strdup(ptr noundef @.str.2)
  %38 = load ptr, ptr %5, align 8
  %39 = getelementptr inbounds nuw %struct._fvalue_t, ptr %38, i32 0, i32 1
  %40 = getelementptr inbounds nuw %struct._protocol_value_t, ptr %39, i32 0, i32 2
  store ptr %37, ptr %40, align 8
  %41 = load ptr, ptr %5, align 8
  %42 = getelementptr inbounds nuw %struct._fvalue_t, ptr %41, i32 0, i32 1
  %43 = getelementptr inbounds nuw %struct._protocol_value_t, ptr %42, i32 0, i32 1
  store i32 -1, ptr %43, align 8
  call void @llvm.lifetime.end.p0(i64 8, ptr %10) #9
  call void @llvm.lifetime.end.p0(i64 8, ptr %9) #9
  ret i1 true
}