; Function Attrs: null_pointer_is_valid sspstrong uwtable
define internal noundef zeroext i1 @val_from_string(ptr noundef captures(none) initializes((16, 20)) %0, ptr noundef %1, i64 noundef %2, ptr readnone captures(none) %3) #0 {
  %5 = getelementptr inbounds nuw i8, ptr %0, i64 8
  %6 = load ptr, ptr %5, align 8
  %.not.i = icmp eq ptr %6, null
  br i1 %.not.i, label %value_free.exit, label %7

7:                                                ; preds = %4
  %8 = getelementptr inbounds nuw i8, ptr %0, i64 32
  %9 = load i8, ptr %8, align 8, !range !6, !noundef !7
  %10 = trunc nuw i8 %9 to i1
  br i1 %10, label %11, label %value_free.exit

11:                                               ; preds = %7
  tail call void @tvb_free_chain(ptr noundef nonnull %6)
  br label %value_free.exit

value_free.exit:                                  ; preds = %4, %7, %11
  %12 = getelementptr inbounds nuw i8, ptr %0, i64 24
  %13 = load ptr, ptr %12, align 8
  tail call void @g_free(ptr noundef %13)
  %14 = icmp eq i64 %2, 0
  br i1 %14, label %15, label %17

15:                                               ; preds = %value_free.exit
  %16 = tail call i64 @strlen(ptr noundef %1) #10
  br label %17

17:                                               ; preds = %15, %value_free.exit
  %.0 = phi i64 [ %16, %15 ], [ %2, %value_free.exit ]
  %18 = trunc i64 %.0 to i32
  %19 = and i64 %.0, 4294967295
  %20 = tail call ptr @g_memdup2(ptr noundef %1, i64 noundef %19) #11
  %21 = tail call ptr @tvb_new_real_data(ptr noundef %20, i32 noundef %18, i32 noundef %18)
  tail call void @tvb_set_free_cb(ptr noundef %21, ptr noundef nonnull @g_free)
  %22 = getelementptr inbounds nuw i8, ptr %0, i64 32
  store i8 1, ptr %22, align 8
  store ptr %21, ptr %5, align 8
  %23 = tail call noalias ptr @g_strdup(ptr noundef nonnull @.str.2)
  store ptr %23, ptr %12, align 8
  %24 = getelementptr inbounds nuw i8, ptr %0, i64 16
  store i32 -1, ptr %24, align 8
  ret i1 true
}